; Function Attrs: null_pointer_is_valid sspstrong uwtable
define hidden ptr @xmpp_steal_element_by_attr(ptr noundef readonly captures(none) %0, ptr noundef %1, ptr noundef readonly captures(none) %2) local_unnamed_addr #0 {
  %4 = getelementptr inbounds nuw i8, ptr %0, i64 32
  %.01633 = load ptr, ptr %4, align 8
  %.not2134 = icmp eq ptr %.01633, null
  br i1 %.not2134, label %.loopexit, label %.lr.ph

.lr.ph:                                           ; preds = %3, %.thread
  %.01635 = phi ptr [ %.016, %.thread ], [ %.01633, %3 ]
  %5 = load ptr, ptr %.01635, align 8
  %6 = getelementptr inbounds nuw i8, ptr %5, i64 24
  %7 = load ptr, ptr %6, align 8
  %8 = tail call ptr @g_hash_table_lookup(ptr noundef %7, ptr noundef %1)
  %.not.i = icmp eq ptr %8, null
  br i1 %.not.i, label %9, label %12

9:                                                ; preds = %.lr.ph
  %10 = load ptr, ptr %6, align 8
  %11 = tail call ptr @g_hash_table_find(ptr noundef %10, ptr noundef nonnull @attr_find_pred, ptr noundef %1)
  %.not9.i = icmp eq ptr %11, null
  br i1 %.not9.i, label %.thread, label %12

12:                                               ; preds = %.lr.ph, %9
  %.012.i = phi ptr [ %11, %9 ], [ %8, %.lr.ph ]
  %13 = getelementptr inbounds nuw i8, ptr %.012.i, i64 24
  store i8 0, ptr %13, align 8
  %14 = getelementptr inbounds nuw i8, ptr %5, i64 56
  %15 = load i8, ptr %14, align 8, !range !6, !noundef !7
  %16 = trunc nuw i8 %15 to i1
  br i1 %16, label %.thread, label %17

17:                                               ; preds = %12
  %18 = load ptr, ptr %.012.i, align 8
  %19 = tail call i32 @strcmp(ptr noundef %18, ptr noundef %2) #11
  %20 = icmp eq i32 %19, 0
  br i1 %20, label %.thread27, label %.thread

.thread27:                                        ; preds = %17
  %21 = load ptr, ptr %.01635, align 8
  %22 = getelementptr inbounds nuw i8, ptr %21, i64 56
  store i8 1, ptr %22, align 8
  br label %.loopexit

.thread:                                          ; preds = %9, %12, %17
  %23 = getelementptr inbounds nuw i8, ptr %.01635, i64 8
  %.016 = load ptr, ptr %23, align 8
  %.not21 = icmp eq ptr %.016, null
  br i1 %.not21, label %.loopexit, label %.lr.ph

.loopexit:                                        ; preds = %.thread, %3, %.thread27
  %.118 = phi ptr [ %21, %.thread27 ], [ null, %3 ], [ null, %.thread ]
  ret ptr %.118
}